
virtual-routines/virtual-routines:     file format elf32-littleriscv


Disassembly of section .text:

00000000 <_start>:
   0:	7ff00113          	li	sp,2047
   4:	280000ef          	jal	ra,284 <main>
   8:	000017b7          	lui	a5,0x1
   c:	80078623          	sb	zero,-2036(a5) # 80c <ADDR_END+0xc>

00000010 <get_malloc_addr>:
  10:	fe010113          	addi	sp,sp,-32
  14:	00812e23          	sw	s0,28(sp)
  18:	02010413          	addi	s0,sp,32
  1c:	000e0793          	mv	a5,t3
  20:	fef42623          	sw	a5,-20(s0)
  24:	fec42783          	lw	a5,-20(s0)
  28:	00078513          	mv	a0,a5
  2c:	01c12403          	lw	s0,28(sp)
  30:	02010113          	addi	sp,sp,32
  34:	00008067          	ret

00000038 <print_string>:
  38:	fe010113          	addi	sp,sp,-32
  3c:	00812e23          	sw	s0,28(sp)
  40:	02010413          	addi	s0,sp,32
  44:	fea42623          	sw	a0,-20(s0)
  48:	0200006f          	j	68 <print_string+0x30>
  4c:	fec42783          	lw	a5,-20(s0)
  50:	00178713          	addi	a4,a5,1
  54:	fee42623          	sw	a4,-20(s0)
  58:	00001737          	lui	a4,0x1
  5c:	80070713          	addi	a4,a4,-2048 # 800 <ADDR_END>
  60:	0007c783          	lbu	a5,0(a5)
  64:	00f70023          	sb	a5,0(a4)
  68:	fec42783          	lw	a5,-20(s0)
  6c:	0007c783          	lbu	a5,0(a5)
  70:	fc079ee3          	bnez	a5,4c <print_string+0x14>
  74:	00000013          	nop
  78:	00000013          	nop
  7c:	01c12403          	lw	s0,28(sp)
  80:	02010113          	addi	sp,sp,32
  84:	00008067          	ret

00000088 <get_int>:
  88:	ff010113          	addi	sp,sp,-16
  8c:	00812623          	sw	s0,12(sp)
  90:	01010413          	addi	s0,sp,16
  94:	000017b7          	lui	a5,0x1
  98:	81678793          	addi	a5,a5,-2026 # 816 <ADDR_END+0x16>
  9c:	0007a783          	lw	a5,0(a5)
  a0:	00078513          	mv	a0,a5
  a4:	00c12403          	lw	s0,12(sp)
  a8:	01010113          	addi	sp,sp,16
  ac:	00008067          	ret

000000b0 <get_char>:
  b0:	ff010113          	addi	sp,sp,-16
  b4:	00812623          	sw	s0,12(sp)
  b8:	01010413          	addi	s0,sp,16
  bc:	000017b7          	lui	a5,0x1
  c0:	81278793          	addi	a5,a5,-2030 # 812 <ADDR_END+0x12>
  c4:	0007a783          	lw	a5,0(a5)
  c8:	0ff7f793          	zext.b	a5,a5
  cc:	00078513          	mv	a0,a5
  d0:	00c12403          	lw	s0,12(sp)
  d4:	01010113          	addi	sp,sp,16
  d8:	00008067          	ret

000000dc <write_char>:
  dc:	fe010113          	addi	sp,sp,-32
  e0:	00812e23          	sw	s0,28(sp)
  e4:	02010413          	addi	s0,sp,32
  e8:	00050793          	mv	a5,a0
  ec:	fef407a3          	sb	a5,-17(s0)
  f0:	000017b7          	lui	a5,0x1
  f4:	80078793          	addi	a5,a5,-2048 # 800 <ADDR_END>
  f8:	fef44703          	lbu	a4,-17(s0)
  fc:	00e7a023          	sw	a4,0(a5)
 100:	00000013          	nop
 104:	01c12403          	lw	s0,28(sp)
 108:	02010113          	addi	sp,sp,32
 10c:	00008067          	ret

00000110 <write_int>:
 110:	fe010113          	addi	sp,sp,-32
 114:	00812e23          	sw	s0,28(sp)
 118:	02010413          	addi	s0,sp,32
 11c:	fea42623          	sw	a0,-20(s0)
 120:	000017b7          	lui	a5,0x1
 124:	80478793          	addi	a5,a5,-2044 # 804 <ADDR_END+0x4>
 128:	fec42703          	lw	a4,-20(s0)
 12c:	00e7a023          	sw	a4,0(a5)
 130:	00000013          	nop
 134:	01c12403          	lw	s0,28(sp)
 138:	02010113          	addi	sp,sp,32
 13c:	00008067          	ret

00000140 <write_uint>:
 140:	fe010113          	addi	sp,sp,-32
 144:	00812e23          	sw	s0,28(sp)
 148:	02010413          	addi	s0,sp,32
 14c:	fea42623          	sw	a0,-20(s0)
 150:	000017b7          	lui	a5,0x1
 154:	80878793          	addi	a5,a5,-2040 # 808 <ADDR_END+0x8>
 158:	fec42703          	lw	a4,-20(s0)
 15c:	00e7a023          	sw	a4,0(a5)
 160:	00000013          	nop
 164:	01c12403          	lw	s0,28(sp)
 168:	02010113          	addi	sp,sp,32
 16c:	00008067          	ret

00000170 <halt>:
 170:	ff010113          	addi	sp,sp,-16
 174:	00812623          	sw	s0,12(sp)
 178:	01010413          	addi	s0,sp,16
 17c:	000017b7          	lui	a5,0x1
 180:	80c78793          	addi	a5,a5,-2036 # 80c <ADDR_END+0xc>
 184:	00100713          	li	a4,1
 188:	00e7a023          	sw	a4,0(a5)
 18c:	00000013          	nop
 190:	00c12403          	lw	s0,12(sp)
 194:	01010113          	addi	sp,sp,16
 198:	00008067          	ret

0000019c <dump_pc>:
 19c:	ff010113          	addi	sp,sp,-16
 1a0:	00812623          	sw	s0,12(sp)
 1a4:	01010413          	addi	s0,sp,16
 1a8:	000017b7          	lui	a5,0x1
 1ac:	82078793          	addi	a5,a5,-2016 # 820 <ADDR_END+0x20>
 1b0:	00100713          	li	a4,1
 1b4:	00e7a023          	sw	a4,0(a5)
 1b8:	00000013          	nop
 1bc:	00c12403          	lw	s0,12(sp)
 1c0:	01010113          	addi	sp,sp,16
 1c4:	00008067          	ret

000001c8 <dump_reg>:
 1c8:	ff010113          	addi	sp,sp,-16
 1cc:	00812623          	sw	s0,12(sp)
 1d0:	01010413          	addi	s0,sp,16
 1d4:	000017b7          	lui	a5,0x1
 1d8:	82478793          	addi	a5,a5,-2012 # 824 <ADDR_END+0x24>
 1dc:	00100713          	li	a4,1
 1e0:	00e7a023          	sw	a4,0(a5)
 1e4:	00000013          	nop
 1e8:	00c12403          	lw	s0,12(sp)
 1ec:	01010113          	addi	sp,sp,16
 1f0:	00008067          	ret

000001f4 <dump_word>:
 1f4:	fe010113          	addi	sp,sp,-32
 1f8:	00812e23          	sw	s0,28(sp)
 1fc:	02010413          	addi	s0,sp,32
 200:	fea42623          	sw	a0,-20(s0)
 204:	000017b7          	lui	a5,0x1
 208:	82878793          	addi	a5,a5,-2008 # 828 <ADDR_END+0x28>
 20c:	fec42703          	lw	a4,-20(s0)
 210:	00e7a023          	sw	a4,0(a5)
 214:	00000013          	nop
 218:	01c12403          	lw	s0,28(sp)
 21c:	02010113          	addi	sp,sp,32
 220:	00008067          	ret

00000224 <vr_malloc>:
 224:	fe010113          	addi	sp,sp,-32
 228:	00812e23          	sw	s0,28(sp)
 22c:	02010413          	addi	s0,sp,32
 230:	fea42623          	sw	a0,-20(s0)
 234:	000017b7          	lui	a5,0x1
 238:	83078793          	addi	a5,a5,-2000 # 830 <ADDR_END+0x30>
 23c:	fec42703          	lw	a4,-20(s0)
 240:	00e7a023          	sw	a4,0(a5)
 244:	00000013          	nop
 248:	01c12403          	lw	s0,28(sp)
 24c:	02010113          	addi	sp,sp,32
 250:	00008067          	ret

00000254 <vr_free>:
 254:	fe010113          	addi	sp,sp,-32
 258:	00812e23          	sw	s0,28(sp)
 25c:	02010413          	addi	s0,sp,32
 260:	fea42623          	sw	a0,-20(s0)
 264:	000017b7          	lui	a5,0x1
 268:	83478793          	addi	a5,a5,-1996 # 834 <ADDR_END+0x34>
 26c:	fec42703          	lw	a4,-20(s0)
 270:	00e7a023          	sw	a4,0(a5)
 274:	00000013          	nop
 278:	01c12403          	lw	s0,28(sp)
 27c:	02010113          	addi	sp,sp,32
 280:	00008067          	ret

00000284 <main>:
 284:	fd010113          	addi	sp,sp,-48
 288:	02112623          	sw	ra,44(sp)
 28c:	02812423          	sw	s0,40(sp)
 290:	03010413          	addi	s0,sp,48
 294:	40000513          	li	a0,1024
 298:	da1ff0ef          	jal	ra,38 <print_string>
 29c:	e15ff0ef          	jal	ra,b0 <get_char>
 2a0:	00050793          	mv	a5,a0
 2a4:	fef401a3          	sb	a5,-29(s0)
 2a8:	41400513          	li	a0,1044
 2ac:	d8dff0ef          	jal	ra,38 <print_string>
 2b0:	dd9ff0ef          	jal	ra,88 <get_int>
 2b4:	00050793          	mv	a5,a0
 2b8:	fcf42e23          	sw	a5,-36(s0)
 2bc:	42800513          	li	a0,1064
 2c0:	d79ff0ef          	jal	ra,38 <print_string>
 2c4:	fe344783          	lbu	a5,-29(s0)
 2c8:	00078513          	mv	a0,a5
 2cc:	e11ff0ef          	jal	ra,dc <write_char>
 2d0:	43800513          	li	a0,1080
 2d4:	d65ff0ef          	jal	ra,38 <print_string>
 2d8:	fdc42783          	lw	a5,-36(s0)
 2dc:	00078513          	mv	a0,a5
 2e0:	e31ff0ef          	jal	ra,110 <write_int>
 2e4:	44800513          	li	a0,1096
 2e8:	d51ff0ef          	jal	ra,38 <print_string>
 2ec:	fdc42783          	lw	a5,-36(s0)
 2f0:	00078513          	mv	a0,a5
 2f4:	e4dff0ef          	jal	ra,140 <write_uint>
 2f8:	46000513          	li	a0,1120
 2fc:	d3dff0ef          	jal	ra,38 <print_string>
 300:	e9dff0ef          	jal	ra,19c <dump_pc>
 304:	47000513          	li	a0,1136
 308:	d31ff0ef          	jal	ra,38 <print_string>
 30c:	ebdff0ef          	jal	ra,1c8 <dump_reg>
 310:	48800513          	li	a0,1160
 314:	d25ff0ef          	jal	ra,38 <print_string>
 318:	fdc40793          	addi	a5,s0,-36
 31c:	00078513          	mv	a0,a5
 320:	ed5ff0ef          	jal	ra,1f4 <dump_word>
 324:	4b800513          	li	a0,1208
 328:	d11ff0ef          	jal	ra,38 <print_string>
 32c:	00100513          	li	a0,1
 330:	ef5ff0ef          	jal	ra,224 <vr_malloc>
 334:	cddff0ef          	jal	ra,10 <get_malloc_addr>
 338:	fea42623          	sw	a0,-20(s0)
 33c:	fe042423          	sw	zero,-24(s0)
 340:	0180006f          	j	358 <main+0xd4>
 344:	00100513          	li	a0,1
 348:	eddff0ef          	jal	ra,224 <vr_malloc>
 34c:	fe842783          	lw	a5,-24(s0)
 350:	00178793          	addi	a5,a5,1
 354:	fef42423          	sw	a5,-24(s0)
 358:	fe842703          	lw	a4,-24(s0)
 35c:	07e00793          	li	a5,126
 360:	fee7d2e3          	bge	a5,a4,344 <main+0xc0>
 364:	4e000513          	li	a0,1248
 368:	cd1ff0ef          	jal	ra,38 <print_string>
 36c:	4e800513          	li	a0,1256
 370:	cc9ff0ef          	jal	ra,38 <print_string>
 374:	fe042223          	sw	zero,-28(s0)
 378:	0240006f          	j	39c <main+0x118>
 37c:	fec42503          	lw	a0,-20(s0)
 380:	ed5ff0ef          	jal	ra,254 <vr_free>
 384:	fec42783          	lw	a5,-20(s0)
 388:	04078793          	addi	a5,a5,64
 38c:	fef42623          	sw	a5,-20(s0)
 390:	fe442783          	lw	a5,-28(s0)
 394:	00178793          	addi	a5,a5,1
 398:	fef42223          	sw	a5,-28(s0)
 39c:	fe442703          	lw	a4,-28(s0)
 3a0:	07f00793          	li	a5,127
 3a4:	fce7dce3          	bge	a5,a4,37c <main+0xf8>
 3a8:	4e000513          	li	a0,1248
 3ac:	c8dff0ef          	jal	ra,38 <print_string>
 3b0:	50800513          	li	a0,1288
 3b4:	c85ff0ef          	jal	ra,38 <print_string>
 3b8:	db9ff0ef          	jal	ra,170 <halt>
 3bc:	51800513          	li	a0,1304
 3c0:	c79ff0ef          	jal	ra,38 <print_string>
 3c4:	00000793          	li	a5,0
 3c8:	00078513          	mv	a0,a5
 3cc:	02c12083          	lw	ra,44(sp)
 3d0:	02812403          	lw	s0,40(sp)
 3d4:	03010113          	addi	sp,sp,48
 3d8:	00008067          	ret
